; Function Attrs: mustprogress uwtable
define void @_Z24grpc_channel_args_stringB5cxx11PK17grpc_channel_args(ptr dead_on_unwind noalias writable sret(%"class.std::__cxx11::basic_string") align 8 %0, ptr noundef readonly %1) local_unnamed_addr #9 personality ptr @__gxx_personality_v0 {
  %3 = alloca %"class.grpc_core::ChannelArgs", align 8
  %4 = alloca %"class.grpc_core::ChannelArgs", align 8
  call void @llvm.lifetime.start.p0(i64 8, ptr nonnull %4) #37
  tail call void @llvm.experimental.noalias.scope.decl(metadata !189)
  call void @_ZN9grpc_core11ChannelArgsC1Ev(ptr noundef nonnull align 8 dereferenceable(8) %4)
  %.not.i = icmp eq ptr %1, null
  br i1 %.not.i, label %_ZN9grpc_core11ChannelArgs5FromCEPK17grpc_channel_args.exit, label %.preheader.i

.preheader.i:                                     ; preds = %2
  %5 = load i64, ptr %1, align 8, !tbaa !51, !noalias !189
  %.not10.i = icmp eq i64 %5, 0
  br i1 %.not10.i, label %_ZN9grpc_core11ChannelArgs5FromCEPK17grpc_channel_args.exit, label %.lr.ph.i

.lr.ph.i:                                         ; preds = %.preheader.i
  %6 = getelementptr inbounds nuw i8, ptr %1, i64 8
  br label %7

7:                                                ; preds = %_ZN9grpc_core11ChannelArgsaSEOS0_.exit.i, %.lr.ph.i
  %.09.i = phi i64 [ 0, %.lr.ph.i ], [ %17, %_ZN9grpc_core11ChannelArgsaSEOS0_.exit.i ]
  call void @llvm.lifetime.start.p0(i64 8, ptr nonnull %3) #37, !noalias !189
  %8 = load ptr, ptr %6, align 8, !tbaa !53, !noalias !189
  %9 = getelementptr inbounds nuw %struct.grpc_arg, ptr %8, i64 %.09.i
  invoke void @_ZNK9grpc_core11ChannelArgs3SetE8grpc_arg(ptr dead_on_unwind nonnull writable sret(%"class.grpc_core::ChannelArgs") align 8 %3, ptr noundef nonnull align 8 dereferenceable(8) %4, ptr noundef nonnull byval(%struct.grpc_arg) align 8 %9)
          to label %10 unwind label %20

10:                                               ; preds = %7
  %11 = load ptr, ptr %3, align 8, !tbaa !25, !noalias !189
  store ptr null, ptr %3, align 8, !tbaa !25, !noalias !189
  %12 = load ptr, ptr %4, align 8, !tbaa !25, !alias.scope !189
  store ptr %11, ptr %4, align 8, !tbaa !25, !alias.scope !189
  %.not.i.i.i.i.i = icmp eq ptr %12, null
  br i1 %.not.i.i.i.i.i, label %_ZN9grpc_core11ChannelArgsaSEOS0_.exit.i, label %13

13:                                               ; preds = %10
  %14 = atomicrmw sub ptr %12, i64 1 acq_rel, align 8
  %15 = icmp eq i64 %14, 1
  br i1 %15, label %16, label %_ZN9grpc_core11ChannelArgsaSEOS0_.exit.i, !prof !24

16:                                               ; preds = %13
  call void @_ZNK9grpc_core11UnrefDeleteclIKNS_3AVLINS_21RefCountedStringValueENS_11ChannelArgs5ValueEE4NodeEEEvPT_(ptr noundef nonnull align 8 dereferenceable(8) %12, ptr noundef nonnull align 8 dereferenceable(8) %12)
  br label %_ZN9grpc_core11ChannelArgsaSEOS0_.exit.i

_ZN9grpc_core11ChannelArgsaSEOS0_.exit.i:         ; preds = %16, %13, %10
  call void @_ZN9grpc_core11ChannelArgsD1Ev(ptr noundef nonnull align 8 dereferenceable(8) %3) #37
  call void @llvm.lifetime.end.p0(i64 8, ptr nonnull %3) #37, !noalias !189
  %17 = add nuw i64 %.09.i, 1
  %18 = load i64, ptr %1, align 8, !tbaa !51, !noalias !189
  %19 = icmp ult i64 %17, %18
  br i1 %19, label %7, label %_ZN9grpc_core11ChannelArgs5FromCEPK17grpc_channel_args.exit, !llvm.loop !54

common.resume:                                    ; preds = %23, %20
  %common.resume.op = phi { ptr, i32 } [ %21, %20 ], [ %24, %23 ]
  resume { ptr, i32 } %common.resume.op

20:                                               ; preds = %7
  %21 = landingpad { ptr, i32 }
          cleanup
  call void @llvm.lifetime.end.p0(i64 8, ptr nonnull %3) #37, !noalias !189
  call void @_ZN9grpc_core11ChannelArgsD1Ev(ptr noundef nonnull align 8 dereferenceable(8) %4) #37
  br label %common.resume

_ZN9grpc_core11ChannelArgs5FromCEPK17grpc_channel_args.exit: ; preds = %_ZN9grpc_core11ChannelArgsaSEOS0_.exit.i, %2, %.preheader.i
  invoke void @_ZNK9grpc_core11ChannelArgs8ToStringB5cxx11Ev(ptr dead_on_unwind writable sret(%"class.std::__cxx11::basic_string") align 8 %0, ptr noundef nonnull align 8 dereferenceable(8) %4)
          to label %22 unwind label %23

22:                                               ; preds = %_ZN9grpc_core11ChannelArgs5FromCEPK17grpc_channel_args.exit
  call void @_ZN9grpc_core11ChannelArgsD1Ev(ptr noundef nonnull align 8 dereferenceable(8) %4) #37
  call void @llvm.lifetime.end.p0(i64 8, ptr nonnull %4) #37
  ret void

23:                                               ; preds = %_ZN9grpc_core11ChannelArgs5FromCEPK17grpc_channel_args.exit
  %24 = landingpad { ptr, i32 }
          cleanup
  call void @_ZN9grpc_core11ChannelArgsD1Ev(ptr noundef nonnull align 8 dereferenceable(8) %4) #37
  call void @llvm.lifetime.end.p0(i64 8, ptr nonnull %4) #37
  br label %common.resume
}